(dp0
Vengine
p1
Vlualatex
p2
sVpackages
p3
c__builtin__
set
p4
((lp5
Vhyperxmp
p6
aVxcolor
p7
aVhyperref
p8
aVurl
p9
aVfontspec
p10
aVxspace
p11
aVpdfpages
p12
aVbookmark
p13
aVmicrotype
p14
aVtypehtml
p15
atp16
Rp17
sVfiles_with_guttermarks
p18
g4
((lp19
S'ojs_omp-terms-of-use.tex'
p20
atp21
Rp22
sVsynctex
p23
I01
s.